target datalayout = "e-m:e-p270:32:32-p271:32:32-p272:64:64-i64:64-i128:128-f80:128-n8:16:32:64-S128"
target triple = "x86_64-pc-linux-gnu"

%struct.stat = type { i64, i64, i64, i32, i32, i32, i32, i64, i64, i64, i64, %struct.timespec, %struct.timespec, %struct.timespec, [3 x i64] }
%struct.timespec = type { i64, i64 }

; Function Attrs: mustprogress nounwind uwtable
define hidden noundef zeroext i1 @_ZN2os11file_existsEPKc(ptr noundef %0) #1 align 2 {
  %2 = alloca i1, align 1
  %3 = alloca ptr, align 8
  %4 = alloca %struct.stat, align 8
  store ptr %0, ptr %3, align 8
  %5 = load ptr, ptr %3, align 8
  %6 = icmp eq ptr %5, null
  br i1 %6, label %11, label %7

7:                                                ; preds = %1
  %8 = load ptr, ptr %3, align 8
  %9 = call i64 @strlen(ptr noundef %8) #14
  %10 = icmp eq i64 %9, 0
  br i1 %10, label %11, label %12

11:                                               ; preds = %7, %1
  store i1 false, ptr %2, align 1
  br label %16

12:                                               ; preds = %7
  %13 = load ptr, ptr %3, align 8
  %14 = call noundef i32 @_ZN2os4statEPKcP4stat(ptr noundef %13, ptr noundef %4)
  %15 = icmp eq i32 %14, 0
  store i1 %15, ptr %2, align 1
  br label %16

16:                                               ; preds = %12, %11
  %17 = load i1, ptr %2, align 1
  ret i1 %17
}