; Function Attrs: mustprogress nounwind uwtable
define hidden noundef zeroext i1 @_ZN2os11file_existsEPKc(ptr noundef %0) local_unnamed_addr #3 align 2 {
  %2 = alloca %struct.stat, align 8
  %3 = icmp eq ptr %0, null
  br i1 %3, label %9, label %4

4:                                                ; preds = %1
  %char0 = load i8, ptr %0, align 1
  %5 = icmp eq i8 %char0, 0
  br i1 %5, label %9, label %6

6:                                                ; preds = %4
  %7 = call noundef i32 @_ZN2os4statEPKcP4stat(ptr noundef nonnull %0, ptr noundef nonnull %2) #28
  %8 = icmp eq i32 %7, 0
  br label %9

9:                                                ; preds = %1, %4, %6
  %.0 = phi i1 [ %8, %6 ], [ false, %4 ], [ false, %1 ]
  ret i1 %.0
}